target datalayout = "e-m:e-p270:32:32-p271:32:32-p272:64:64-i64:64-i128:128-f80:128-n8:16:32:64-S128"
target triple = "x86_64-pc-linux-gnu"

@stderr = external global ptr, align 8
@.str = private unnamed_addr constant [47 x i8] c"%s:%d: Assertion \22%s\22 in function \22%s\22 failed\0A\00", align 1
@.str.1 = private unnamed_addr constant [25 x i8] c"An exception thrown! %s\0A\00", align 1

; Function Attrs: mustprogress noreturn uwtable
define hidden void @_ZN3ade7details16dev_assert_abortEPKciS2_S2_(ptr noundef %0, i32 noundef %1, ptr noundef %2, ptr noundef %3) #0 {
  %5 = alloca ptr, align 8
  %6 = alloca i32, align 4
  %7 = alloca ptr, align 8
  %8 = alloca ptr, align 8
  store ptr %0, ptr %5, align 8, !tbaa !3
  store i32 %1, ptr %6, align 4, !tbaa !8
  store ptr %2, ptr %7, align 8, !tbaa !3
  store ptr %3, ptr %8, align 8, !tbaa !3
  %9 = load ptr, ptr @stderr, align 8, !tbaa !10
  %10 = load ptr, ptr %7, align 8, !tbaa !3
  %11 = load i32, ptr %6, align 4, !tbaa !8
  %12 = load ptr, ptr %5, align 8, !tbaa !3
  %13 = load ptr, ptr %8, align 8, !tbaa !3
  %14 = call i32 (ptr, ptr, ...) @fprintf(ptr noundef %9, ptr noundef @.str, ptr noundef %10, i32 noundef %11, ptr noundef %12, ptr noundef %13) #4
  %15 = load ptr, ptr @stderr, align 8, !tbaa !10
  %16 = call i32 @fflush(ptr noundef %15)
  call void @abort() #5
  unreachable
}

; Function Attrs: nounwind
declare i32 @fprintf(ptr noundef, ptr noundef, ...) #1

declare i32 @fflush(ptr noundef) #2

; Function Attrs: noreturn nounwind
declare void @abort() #3

; Function Attrs: mustprogress noreturn uwtable
define hidden void @_ZN3ade7details19dev_exception_abortEPKc(ptr noundef %0) #0 {
  %2 = alloca ptr, align 8
  store ptr %0, ptr %2, align 8, !tbaa !3
  %3 = load ptr, ptr @stderr, align 8, !tbaa !10
  %4 = load ptr, ptr %2, align 8, !tbaa !3
  %5 = call i32 (ptr, ptr, ...) @fprintf(ptr noundef %3, ptr noundef @.str.1, ptr noundef %4) #4
  %6 = load ptr, ptr @stderr, align 8, !tbaa !10
  %7 = call i32 @fflush(ptr noundef %6)
  call void @abort() #5
  unreachable
}


!llvm.module.flags = !{!0, !1, !2}

!0 = !{i32 1, !"wchar_size", i32 4}
!1 = !{i32 8, !"PIC Level", i32 2}
!2 = !{i32 7, !"uwtable", i32 2}
!3 = !{!4, !4, i64 0}
!4 = !{!"p1 omnipotent char", !5, i64 0}
!5 = !{!"any pointer", !6, i64 0}
!6 = !{!"omnipotent char", !7, i64 0}
!7 = !{!"Simple C++ TBAA"}
!8 = !{!9, !9, i64 0}
!9 = !{!"int", !6, i64 0}
!10 = !{!11, !11, i64 0}
!11 = !{!"p1 _ZTS8_IO_FILE", !5, i64 0}
