; ModuleID = 'bench/opencv/original/assert.ll'
source_filename = "bench/opencv/original/assert.ll"
target datalayout = "e-m:e-p270:32:32-p271:32:32-p272:64:64-i64:64-i128:128-f80:128-n8:16:32:64-S128"
target triple = "x86_64-pc-linux-gnu"

@stderr = external local_unnamed_addr global ptr, align 8
@.str = private unnamed_addr constant [47 x i8] c"%s:%d: Assertion \22%s\22 in function \22%s\22 failed\0A\00", align 1
@.str.1 = private unnamed_addr constant [25 x i8] c"An exception thrown! %s\0A\00", align 1

; Function Attrs: cold mustprogress nofree noreturn nounwind uwtable
define hidden void @_ZN3ade7details16dev_assert_abortEPKciS2_S2_(ptr noundef %0, i32 noundef %1, ptr noundef %2, ptr noundef %3) local_unnamed_addr #0 {
  %5 = load ptr, ptr @stderr, align 8, !tbaa !3
  %6 = tail call i32 (ptr, ptr, ...) @fprintf(ptr noundef %5, ptr noundef nonnull @.str, ptr noundef %2, i32 noundef %1, ptr noundef %0, ptr noundef %3) #3
  %7 = load ptr, ptr @stderr, align 8, !tbaa !3
  %8 = tail call i32 @fflush(ptr noundef %7)
  tail call void @abort() #4
  unreachable
}

; Function Attrs: nofree nounwind
declare noundef i32 @fprintf(ptr noundef captures(none), ptr noundef readonly captures(none), ...) local_unnamed_addr #1

; Function Attrs: nofree nounwind
declare noundef i32 @fflush(ptr noundef captures(none)) local_unnamed_addr #1

; Function Attrs: cold nofree noreturn nounwind
declare void @abort() local_unnamed_addr #2

; Function Attrs: cold mustprogress nofree noreturn nounwind uwtable
define hidden void @_ZN3ade7details19dev_exception_abortEPKc(ptr noundef %0) local_unnamed_addr #0 {
  %2 = load ptr, ptr @stderr, align 8, !tbaa !3
  %3 = tail call i32 (ptr, ptr, ...) @fprintf(ptr noundef %2, ptr noundef nonnull @.str.1, ptr noundef %0) #3
  %4 = load ptr, ptr @stderr, align 8, !tbaa !3
  %5 = tail call i32 @fflush(ptr noundef %4)
  tail call void @abort() #4
  unreachable
}


!llvm.module.flags = !{!0, !1, !2}

!0 = !{i32 1, !"wchar_size", i32 4}
!1 = !{i32 8, !"PIC Level", i32 2}
!2 = !{i32 7, !"uwtable", i32 2}
!3 = !{!4, !4, i64 0}
!4 = !{!"p1 _ZTS8_IO_FILE", !5, i64 0}
!5 = !{!"any pointer", !6, i64 0}
!6 = !{!"omnipotent char", !7, i64 0}
!7 = !{!"Simple C++ TBAA"}
